; Function Attrs: mustprogress uwtable
define void @_ZNK6casadi17GetNonzerosSlice24dispERKSt6vectorINSt7__cxx1112basic_stringIcSt11char_traitsIcESaIcEEESaIS7_EE(ptr dead_on_unwind noalias writable sret(%"class.std::__cxx11::basic_string") align 8 %0, ptr noundef nonnull align 8 dereferenceable(112) %1, ptr nocapture noundef nonnull readonly align 8 dereferenceable(24) %2) unnamed_addr #3 align 2 personality ptr @__gxx_personality_v0 {
  %4 = alloca %"class.std::__cxx11::basic_stringstream", align 8
  call void @_ZNSt7__cxx1118basic_stringstreamIcSt11char_traitsIcESaIcEEC1Ev(ptr noundef nonnull align 8 dereferenceable(128) %4)
  %5 = getelementptr inbounds i8, ptr %2, i64 8
  %6 = load ptr, ptr %5, align 8
  %7 = load ptr, ptr %2, align 8
  %.not.i.i.not = icmp eq ptr %6, %7
  br i1 %.not.i.i.not, label %8, label %_ZNKSt6vectorINSt7__cxx1112basic_stringIcSt11char_traitsIcESaIcEEESaIS5_EE2atEm.exit

8:                                                ; preds = %3
  invoke void (ptr, ...) @_ZSt24__throw_out_of_range_fmtPKcz(ptr noundef nonnull @.str.38, i64 noundef 0, i64 noundef 0) #24
          to label %.noexc unwind label %21

.noexc:                                           ; preds = %8
  unreachable

_ZNKSt6vectorINSt7__cxx1112basic_stringIcSt11char_traitsIcESaIcEEESaIS5_EE2atEm.exit: ; preds = %3
  %9 = getelementptr inbounds i8, ptr %4, i64 16
  %10 = invoke noundef nonnull align 8 dereferenceable(8) ptr @_ZStlsIcSt11char_traitsIcESaIcEERSt13basic_ostreamIT_T0_ES7_RKNSt7__cxx1112basic_stringIS4_S5_T1_EE(ptr noundef nonnull align 8 dereferenceable(8) %9, ptr noundef nonnull align 8 dereferenceable(32) %7)
          to label %11 unwind label %21

11:                                               ; preds = %_ZNKSt6vectorINSt7__cxx1112basic_stringIcSt11char_traitsIcESaIcEEESaIS5_EE2atEm.exit
  %12 = invoke noundef nonnull align 8 dereferenceable(8) ptr @_ZStlsISt11char_traitsIcEERSt13basic_ostreamIcT_ES5_PKc(ptr noundef nonnull align 8 dereferenceable(8) %10, ptr noundef nonnull @.str)
          to label %13 unwind label %21

13:                                               ; preds = %11
  %14 = getelementptr inbounds i8, ptr %1, i64 88
  invoke void @_ZNK6casadi5Slice4dispERSob(ptr noundef nonnull align 8 dereferenceable(24) %14, ptr noundef nonnull align 8 dereferenceable(8) %12, i1 noundef zeroext false)
          to label %_ZN6casadilsERSoRKNS_5SliceE.exit unwind label %21

_ZN6casadilsERSoRKNS_5SliceE.exit:                ; preds = %13
  %15 = invoke noundef nonnull align 8 dereferenceable(8) ptr @_ZStlsISt11char_traitsIcEERSt13basic_ostreamIcT_ES5_PKc(ptr noundef nonnull align 8 dereferenceable(8) %12, ptr noundef nonnull @.str.2)
          to label %16 unwind label %21

16:                                               ; preds = %_ZN6casadilsERSoRKNS_5SliceE.exit
  %17 = getelementptr inbounds i8, ptr %1, i64 64
  invoke void @_ZNK6casadi5Slice4dispERSob(ptr noundef nonnull align 8 dereferenceable(24) %17, ptr noundef nonnull align 8 dereferenceable(8) %15, i1 noundef zeroext false)
          to label %_ZN6casadilsERSoRKNS_5SliceE.exit5 unwind label %21

_ZN6casadilsERSoRKNS_5SliceE.exit5:               ; preds = %16
  %18 = invoke noundef nonnull align 8 dereferenceable(8) ptr @_ZStlsISt11char_traitsIcEERSt13basic_ostreamIcT_ES5_PKc(ptr noundef nonnull align 8 dereferenceable(8) %15, ptr noundef nonnull @.str.1)
          to label %19 unwind label %21

19:                                               ; preds = %_ZN6casadilsERSoRKNS_5SliceE.exit5
  invoke void @_ZNKSt7__cxx1118basic_stringstreamIcSt11char_traitsIcESaIcEE3strEv(ptr dead_on_unwind writable sret(%"class.std::__cxx11::basic_string") align 8 %0, ptr noundef nonnull align 8 dereferenceable(128) %4)
          to label %20 unwind label %21

20:                                               ; preds = %19
  call void @_ZNSt7__cxx1118basic_stringstreamIcSt11char_traitsIcESaIcEED1Ev(ptr noundef nonnull align 8 dereferenceable(128) %4) #22
  ret void

21:                                               ; preds = %16, %13, %8, %19, %_ZN6casadilsERSoRKNS_5SliceE.exit5, %_ZN6casadilsERSoRKNS_5SliceE.exit, %11, %_ZNKSt6vectorINSt7__cxx1112basic_stringIcSt11char_traitsIcESaIcEEESaIS5_EE2atEm.exit
  %22 = landingpad { ptr, i32 }
          cleanup
  call void @_ZNSt7__cxx1118basic_stringstreamIcSt11char_traitsIcESaIcEED1Ev(ptr noundef nonnull align 8 dereferenceable(128) %4) #22
  resume { ptr, i32 } %22
}